target datalayout = "e-m:e-p270:32:32-p271:32:32-p272:64:64-i64:64-i128:128-f80:128-n8:16:32:64-S128"
target triple = "x86_64-pc-linux-gnu"

%struct.PQArgBlock = type { i32, i32, %union.anon }
%union.anon = type { ptr }
%struct.pg_conn = type { ptr, ptr, ptr, ptr, ptr, ptr, ptr, ptr, ptr, ptr, ptr, ptr, ptr, ptr, ptr, ptr, ptr, ptr, ptr, ptr, ptr, ptr, ptr, ptr, ptr, ptr, ptr, ptr, ptr, ptr, ptr, ptr, ptr, ptr, ptr, ptr, ptr, ptr, ptr, ptr, ptr, ptr, ptr, i8, ptr, i32, %struct.PGNoticeHooks, ptr, i32, i32, i32, i32, i32, [6 x i8], i8, i8, i32, i8, i8, i32, i8, i32, ptr, ptr, i32, i32, ptr, ptr, ptr, ptr, ptr, i32, %struct.SockAddr, %struct.SockAddr, i32, i32, i8, i8, i8, i8, i8, i8, ptr, i8, i32, [1 x ptr], i8, i8, ptr, ptr, i32, i32, i32, i8, i8, i32, i32, ptr, i8, i64, ptr, i64, ptr, i32, i32, ptr, i32, i8, i32, i32, i32, i32, ptr, %struct.pg_prng_state, ptr, i32, i32, i32, i32, ptr, i32, i32, i32, i32, ptr, i32, ptr, i8, ptr, ptr, ptr, i32, i8, i8, i8, i8, i8, i8, i8, i8, %struct.PQExpBufferData, i32, %struct.PQExpBufferData }
%struct.PGNoticeHooks = type { ptr, ptr, ptr, ptr }
%struct.SockAddr = type { %struct.sockaddr_storage, i32 }
%struct.sockaddr_storage = type { i16, [118 x i8], i64 }
%struct.pg_prng_state = type { i64, i64 }
%struct.PQExpBufferData = type { ptr, i64, i64 }
%struct.pgLobjfuncs = type { i32, i32, i32, i32, i32, i32, i32, i32, i32, i32, i32, i32, i32 }

; Function Attrs: nounwind uwtable
define i32 @lo_tell(ptr noundef %0, i32 noundef %1) #0 {
  %3 = alloca i32, align 4
  %4 = alloca ptr, align 8
  %5 = alloca i32, align 4
  %6 = alloca i32, align 4
  %7 = alloca [1 x %struct.PQArgBlock], align 16
  %8 = alloca ptr, align 8
  %9 = alloca i32, align 4
  %10 = alloca i32, align 4
  store ptr %0, ptr %4, align 8
  store i32 %1, ptr %5, align 4
  call void @llvm.lifetime.start.p0(i64 4, ptr %6) #10
  call void @llvm.lifetime.start.p0(i64 16, ptr %7) #10
  call void @llvm.lifetime.start.p0(i64 8, ptr %8) #10
  call void @llvm.lifetime.start.p0(i64 4, ptr %9) #10
  %11 = load ptr, ptr %4, align 8
  %12 = call i32 @lo_initialize(ptr noundef %11)
  %13 = icmp slt i32 %12, 0
  br i1 %13, label %14, label %15

14:                                               ; preds = %2
  store i32 -1, ptr %3, align 4
  store i32 1, ptr %10, align 4
  br label %39

15:                                               ; preds = %2
  %16 = getelementptr inbounds [1 x %struct.PQArgBlock], ptr %7, i64 0, i64 0
  %17 = getelementptr inbounds nuw %struct.PQArgBlock, ptr %16, i32 0, i32 1
  store i32 1, ptr %17, align 4
  %18 = getelementptr inbounds [1 x %struct.PQArgBlock], ptr %7, i64 0, i64 0
  %19 = getelementptr inbounds nuw %struct.PQArgBlock, ptr %18, i32 0, i32 0
  store i32 4, ptr %19, align 16
  %20 = load i32, ptr %5, align 4
  %21 = getelementptr inbounds [1 x %struct.PQArgBlock], ptr %7, i64 0, i64 0
  %22 = getelementptr inbounds nuw %struct.PQArgBlock, ptr %21, i32 0, i32 2
  store i32 %20, ptr %22, align 8
  %23 = load ptr, ptr %4, align 8
  %24 = load ptr, ptr %4, align 8
  %25 = getelementptr inbounds nuw %struct.pg_conn, ptr %24, i32 0, i32 112
  %26 = load ptr, ptr %25, align 8
  %27 = getelementptr inbounds nuw %struct.pgLobjfuncs, ptr %26, i32 0, i32 7
  %28 = load i32, ptr %27, align 4
  %29 = getelementptr inbounds [1 x %struct.PQArgBlock], ptr %7, i64 0, i64 0
  %30 = call ptr @PQfn(ptr noundef %23, i32 noundef %28, ptr noundef %6, ptr noundef %9, i32 noundef 1, ptr noundef %29, i32 noundef 1)
  store ptr %30, ptr %8, align 8
  %31 = load ptr, ptr %8, align 8
  %32 = call i32 @PQresultStatus(ptr noundef %31)
  %33 = icmp eq i32 %32, 1
  br i1 %33, label %34, label %37

34:                                               ; preds = %15
  %35 = load ptr, ptr %8, align 8
  call void @PQclear(ptr noundef %35)
  %36 = load i32, ptr %6, align 4
  store i32 %36, ptr %3, align 4
  store i32 1, ptr %10, align 4
  br label %39

37:                                               ; preds = %15
  %38 = load ptr, ptr %8, align 8
  call void @PQclear(ptr noundef %38)
  store i32 -1, ptr %3, align 4
  store i32 1, ptr %10, align 4
  br label %39

39:                                               ; preds = %37, %34, %14
  call void @llvm.lifetime.end.p0(i64 4, ptr %9) #10
  call void @llvm.lifetime.end.p0(i64 8, ptr %8) #10
  call void @llvm.lifetime.end.p0(i64 16, ptr %7) #10
  call void @llvm.lifetime.end.p0(i64 4, ptr %6) #10
  %40 = load i32, ptr %3, align 4
  ret i32 %40
}